; Function Attrs: mustprogress nounwind willreturn uwtable
define void @Ssw_SemManStop(ptr noundef captures(none) %0) local_unnamed_addr #4 {
  %2 = getelementptr inbounds nuw i8, ptr %0, i64 24
  %3 = load ptr, ptr %2, align 8, !tbaa !40
  %4 = getelementptr inbounds nuw i8, ptr %3, i64 8
  %5 = load ptr, ptr %4, align 8, !tbaa !39
  %.not.i = icmp eq ptr %5, null
  br i1 %.not.i, label %Vec_PtrFree.exit, label %6

6:                                                ; preds = %1
  tail call void @free(ptr noundef nonnull %5) #19
  br label %Vec_PtrFree.exit

Vec_PtrFree.exit:                                 ; preds = %1, %6
  tail call void @free(ptr noundef nonnull %3) #19
  %7 = getelementptr inbounds nuw i8, ptr %0, i64 40
  %8 = load ptr, ptr %7, align 8, !tbaa !50
  %9 = getelementptr inbounds nuw i8, ptr %8, i64 8
  %10 = load ptr, ptr %9, align 8, !tbaa !39
  %.not.i5 = icmp eq ptr %10, null
  br i1 %.not.i5, label %Vec_PtrFree.exit6, label %11

11:                                               ; preds = %Vec_PtrFree.exit
  tail call void @free(ptr noundef nonnull %10) #19
  br label %Vec_PtrFree.exit6

Vec_PtrFree.exit6:                                ; preds = %Vec_PtrFree.exit, %11
  tail call void @free(ptr noundef nonnull %8) #19
  %12 = getelementptr inbounds nuw i8, ptr %0, i64 48
  %13 = load ptr, ptr %12, align 8, !tbaa !55
  %14 = getelementptr inbounds nuw i8, ptr %13, i64 8
  %15 = load ptr, ptr %14, align 8, !tbaa !54
  %.not.i7 = icmp eq ptr %15, null
  br i1 %.not.i7, label %17, label %16

16:                                               ; preds = %Vec_PtrFree.exit6
  tail call void @free(ptr noundef nonnull %15) #19
  br label %17

17:                                               ; preds = %Vec_PtrFree.exit6, %16
  tail call void @free(ptr noundef nonnull %13) #19
  tail call void @free(ptr noundef nonnull %0) #19
  ret void
}